; Function Attrs: nounwind uwtable
define i32 @If_ManCutAigDelay_rec(ptr noundef %0, ptr noundef %1, ptr noundef %2) local_unnamed_addr #0 {
  %4 = load i32, ptr %1, align 8
  %5 = and i32 %4, 512
  %.not = icmp eq i32 %5, 0
  br i1 %.not, label %9, label %6

6:                                                ; preds = %3
  %7 = getelementptr inbounds nuw i8, ptr %1, i64 64
  %8 = load i32, ptr %7, align 8, !tbaa !3
  br label %common.ret27

9:                                                ; preds = %3
  %10 = and i32 %4, 15
  %.off = add nsw i32 %10, -1
  %switch = icmp ult i32 %.off, 2
  br i1 %switch, label %common.ret27, label %11

11:                                               ; preds = %9
  %12 = or disjoint i32 %4, 512
  store i32 %12, ptr %1, align 8
  %13 = getelementptr inbounds nuw i8, ptr %2, i64 4
  %14 = load i32, ptr %13, align 4, !tbaa !6
  %15 = load i32, ptr %2, align 8, !tbaa !10
  %16 = icmp eq i32 %14, %15
  br i1 %16, label %17, label %.Vec_PtrGrow.exit11_crit_edge.i

.Vec_PtrGrow.exit11_crit_edge.i:                  ; preds = %11
  %.phi.trans.insert.i = getelementptr inbounds nuw i8, ptr %2, i64 8
  %.pre.i = load ptr, ptr %.phi.trans.insert.i, align 8, !tbaa !11
  br label %Vec_PtrPush.exit

17:                                               ; preds = %11
  %18 = icmp slt i32 %14, 16
  br i1 %18, label %19, label %27

19:                                               ; preds = %17
  %20 = getelementptr inbounds nuw i8, ptr %2, i64 8
  %21 = load ptr, ptr %20, align 8, !tbaa !11
  %.not9.i.i = icmp eq ptr %21, null
  br i1 %.not9.i.i, label %24, label %22

22:                                               ; preds = %19
  %23 = tail call dereferenceable_or_null(128) ptr @realloc(ptr noundef nonnull %21, i64 noundef 128) #20
  br label %Vec_PtrGrow.exit.i

24:                                               ; preds = %19
  %25 = tail call noalias dereferenceable_or_null(128) ptr @malloc(i64 noundef 128) #21
  br label %Vec_PtrGrow.exit.i

Vec_PtrGrow.exit.i:                               ; preds = %24, %22
  %26 = phi ptr [ %23, %22 ], [ %25, %24 ]
  store ptr %26, ptr %20, align 8, !tbaa !11
  store i32 16, ptr %2, align 8, !tbaa !10
  br label %Vec_PtrPush.exit

27:                                               ; preds = %17
  %28 = shl nuw nsw i32 %14, 1
  %29 = getelementptr inbounds nuw i8, ptr %2, i64 8
  %30 = load ptr, ptr %29, align 8, !tbaa !11
  %.not9.i10.i = icmp eq ptr %30, null
  %31 = zext nneg i32 %28 to i64
  %32 = shl nuw nsw i64 %31, 3
  br i1 %.not9.i10.i, label %35, label %33

33:                                               ; preds = %27
  %34 = tail call ptr @realloc(ptr noundef nonnull %30, i64 noundef %32) #20
  br label %37

35:                                               ; preds = %27
  %36 = tail call noalias ptr @malloc(i64 noundef %32) #21
  br label %37

37:                                               ; preds = %35, %33
  %38 = phi ptr [ %34, %33 ], [ %36, %35 ]
  store ptr %38, ptr %29, align 8, !tbaa !11
  store i32 %28, ptr %2, align 8, !tbaa !10
  br label %Vec_PtrPush.exit

common.ret27:                                     ; preds = %6, %9, %Vec_PtrPush.exit
  %common.ret27.op = phi i32 [ %54, %Vec_PtrPush.exit ], [ %8, %6 ], [ -1, %9 ]
  ret i32 %common.ret27.op

Vec_PtrPush.exit:                                 ; preds = %.Vec_PtrGrow.exit11_crit_edge.i, %Vec_PtrGrow.exit.i, %37
  %39 = phi ptr [ %.pre.i, %.Vec_PtrGrow.exit11_crit_edge.i ], [ %38, %37 ], [ %26, %Vec_PtrGrow.exit.i ]
  %40 = load i32, ptr %13, align 4, !tbaa !6
  %41 = add nsw i32 %40, 1
  store i32 %41, ptr %13, align 4, !tbaa !6
  %42 = sext i32 %40 to i64
  %43 = getelementptr inbounds ptr, ptr %39, i64 %42
  store ptr %1, ptr %43, align 8, !tbaa !12
  %44 = getelementptr inbounds nuw i8, ptr %1, i64 24
  %45 = load ptr, ptr %44, align 8, !tbaa !13
  %46 = tail call i32 @If_ManCutAigDelay_rec(ptr noundef %0, ptr noundef %45, ptr noundef nonnull %2)
  %47 = getelementptr inbounds nuw i8, ptr %1, i64 32
  %48 = load ptr, ptr %47, align 8, !tbaa !19
  %49 = tail call i32 @If_ManCutAigDelay_rec(ptr noundef %0, ptr noundef %48, ptr noundef nonnull %2)
  %50 = icmp sgt i32 %46, -1
  %51 = icmp sgt i32 %49, -1
  %or.cond = select i1 %50, i1 %51, i1 false
  %52 = tail call range(i32 0, -2147483648) i32 @llvm.umax.i32(i32 range(i32 0, -2147483648) %46, i32 range(i32 0, -2147483648) %49)
  %53 = add nuw nsw i32 %52, 1
  %54 = select i1 %or.cond, i32 %53, i32 -1
  %55 = getelementptr inbounds nuw i8, ptr %1, i64 64
  store i32 %54, ptr %55, align 8, !tbaa !3
  br label %common.ret27
}